; Function Attrs: mustprogress uwtable
define internal fastcc void @"_ZZN2cv4gapi3wip11async_applyERNS_12GComputationEOSt8functionIFvNSt15__exception_ptr13exception_ptrEEEOSt6vectorINS_7GRunArgESaISB_EEOSA_INS_4util7variantIJPNS_4UMatEPNS_3MatEPNS_4RMatEPNS_7Scalar_IdEEPNS_10MediaFrameENS_6detail9VectorRefENSS_9OpaqueRefEEEESaISV_EEOSA_INS_11GCompileArgESaISZ_EEEN3$_0C2ERKS13_"(ptr noundef nonnull align 8 dereferenceable(120) %0, ptr noundef nonnull align 8 dereferenceable(120) %1) unnamed_addr #2 align 2 personality ptr @__gxx_personality_v0 {
  %3 = load ptr, ptr %1, align 8
  store ptr %3, ptr %0, align 8
  %4 = getelementptr inbounds i8, ptr %0, i64 8
  %5 = getelementptr inbounds i8, ptr %1, i64 8
  %6 = load ptr, ptr %5, align 8
  store ptr %6, ptr %4, align 8
  %.not.i.i.i.i = icmp eq ptr %6, null
  br i1 %.not.i.i.i.i, label %_ZN2cv12GComputationC2ERKS0_.exit, label %7

7:                                                ; preds = %2
  %8 = getelementptr inbounds i8, ptr %6, i64 8
  %9 = load i8, ptr @__libc_single_threaded, align 1
  %.not.i.i.i.i.i = icmp eq i8 %9, 0
  br i1 %.not.i.i.i.i.i, label %13, label %10

10:                                               ; preds = %7
  %11 = load i32, ptr %8, align 4
  %12 = add nsw i32 %11, 1
  store i32 %12, ptr %8, align 4
  br label %_ZN2cv12GComputationC2ERKS0_.exit

13:                                               ; preds = %7
  %14 = atomicrmw volatile add ptr %8, i32 1 acq_rel, align 4
  br label %_ZN2cv12GComputationC2ERKS0_.exit

_ZN2cv12GComputationC2ERKS0_.exit:                ; preds = %2, %10, %13
  %15 = getelementptr inbounds i8, ptr %0, i64 16
  %16 = getelementptr inbounds i8, ptr %1, i64 16
  invoke void @_ZNSt6vectorIN2cv7GRunArgESaIS1_EEC2ERKS3_(ptr noundef nonnull align 8 dereferenceable(24) %15, ptr noundef nonnull align 8 dereferenceable(24) %16)
          to label %17 unwind label %44

17:                                               ; preds = %_ZN2cv12GComputationC2ERKS0_.exit
  %18 = getelementptr inbounds i8, ptr %0, i64 40
  %19 = getelementptr inbounds i8, ptr %1, i64 40
  invoke void @_ZNSt6vectorIN2cv4util7variantIJPNS0_4UMatEPNS0_3MatEPNS0_4RMatEPNS0_7Scalar_IdEEPNS0_10MediaFrameENS0_6detail9VectorRefENSE_9OpaqueRefEEEESaISH_EEC2ERKSJ_(ptr noundef nonnull align 8 dereferenceable(24) %18, ptr noundef nonnull align 8 dereferenceable(24) %19)
          to label %20 unwind label %46

20:                                               ; preds = %17
  %21 = getelementptr inbounds i8, ptr %0, i64 64
  %22 = getelementptr inbounds i8, ptr %1, i64 64
  invoke void @_ZNSt6vectorIN2cv11GCompileArgESaIS1_EEC2ERKS3_(ptr noundef nonnull align 8 dereferenceable(24) %21, ptr noundef nonnull align 8 dereferenceable(24) %22)
          to label %23 unwind label %48

23:                                               ; preds = %20
  %24 = getelementptr inbounds i8, ptr %0, i64 88
  %25 = getelementptr inbounds i8, ptr %0, i64 104
  %26 = getelementptr inbounds i8, ptr %0, i64 112
  %27 = getelementptr inbounds i8, ptr %1, i64 104
  tail call void @llvm.memset.p0.i64(ptr noundef nonnull align 8 dereferenceable(32) %24, i8 0, i64 32, i1 false)
  %28 = load ptr, ptr %27, align 8
  %.not.i.i.not.i = icmp eq ptr %28, null
  br i1 %.not.i.i.not.i, label %_ZNSt8functionIFvNSt15__exception_ptr13exception_ptrEEEC2ERKS3_.exit, label %29

29:                                               ; preds = %23
  %30 = getelementptr inbounds i8, ptr %1, i64 88
  %31 = invoke noundef zeroext i1 %28(ptr noundef nonnull align 8 dereferenceable(16) %24, ptr noundef nonnull align 8 dereferenceable(16) %30, i32 noundef 2)
          to label %32 unwind label %36

32:                                               ; preds = %29
  %33 = getelementptr inbounds i8, ptr %1, i64 112
  %34 = load ptr, ptr %33, align 8
  store ptr %34, ptr %26, align 8
  %35 = load ptr, ptr %27, align 8
  store ptr %35, ptr %25, align 8
  br label %_ZNSt8functionIFvNSt15__exception_ptr13exception_ptrEEEC2ERKS3_.exit

36:                                               ; preds = %29
  %37 = landingpad { ptr, i32 }
          cleanup
  %38 = load ptr, ptr %25, align 8
  %.not.i.i = icmp eq ptr %38, null
  br i1 %.not.i.i, label %.body, label %39

39:                                               ; preds = %36
  %40 = invoke noundef zeroext i1 %38(ptr noundef nonnull align 8 dereferenceable(16) %24, ptr noundef nonnull align 8 dereferenceable(16) %24, i32 noundef 3)
          to label %.body unwind label %41

41:                                               ; preds = %39
  %42 = landingpad { ptr, i32 }
          catch ptr null
  %43 = extractvalue { ptr, i32 } %42, 0
  tail call void @__clang_call_terminate(ptr %43) #19
  unreachable

_ZNSt8functionIFvNSt15__exception_ptr13exception_ptrEEEC2ERKS3_.exit: ; preds = %32, %23
  ret void

44:                                               ; preds = %_ZN2cv12GComputationC2ERKS0_.exit
  %45 = landingpad { ptr, i32 }
          cleanup
  br label %52

46:                                               ; preds = %17
  %47 = landingpad { ptr, i32 }
          cleanup
  br label %51

48:                                               ; preds = %20
  %49 = landingpad { ptr, i32 }
          cleanup
  br label %50

.body:                                            ; preds = %36, %39
  tail call void @_ZNSt6vectorIN2cv11GCompileArgESaIS1_EED2Ev(ptr noundef nonnull align 8 dereferenceable(24) %21) #20
  br label %50

50:                                               ; preds = %.body, %48
  %.pn = phi { ptr, i32 } [ %37, %.body ], [ %49, %48 ]
  tail call void @_ZNSt6vectorIN2cv4util7variantIJPNS0_4UMatEPNS0_3MatEPNS0_4RMatEPNS0_7Scalar_IdEEPNS0_10MediaFrameENS0_6detail9VectorRefENSE_9OpaqueRefEEEESaISH_EED2Ev(ptr noundef nonnull align 8 dereferenceable(24) %18) #20
  br label %51

51:                                               ; preds = %50, %46
  %.pn.pn = phi { ptr, i32 } [ %.pn, %50 ], [ %47, %46 ]
  tail call void @_ZNSt6vectorIN2cv7GRunArgESaIS1_EED2Ev(ptr noundef nonnull align 8 dereferenceable(24) %15) #20
  br label %52

52:                                               ; preds = %51, %44
  %.pn.pn.pn = phi { ptr, i32 } [ %.pn.pn, %51 ], [ %45, %44 ]
  tail call void @_ZN2cv12GComputationD2Ev(ptr noundef nonnull align 8 dereferenceable(16) %0) #20
  resume { ptr, i32 } %.pn.pn.pn
}